; Function Attrs: mustprogress nounwind uwtable
define internal fastcc void @_ZN12_GLOBAL__N_113MaccmapWorkerD2Ev(ptr nocapture noundef nonnull readonly align 8 dereferenceable(36) %0) unnamed_addr #4 align 2 personality ptr @__gxx_personality_v0 {
  %2 = load ptr, ptr %0, align 8
  %3 = getelementptr inbounds i8, ptr %0, i64 8
  %4 = load ptr, ptr %3, align 8
  %.not4.i.i.i.i = icmp eq ptr %2, %4
  br i1 %.not4.i.i.i.i, label %_ZSt8_DestroyIPSt3setIN5Yosys5RTLIL6SigBitESt4lessIS3_ESaIS3_EES7_EvT_S9_RSaIT0_E.exit.i, label %.lr.ph.i.i.i.i

.lr.ph.i.i.i.i:                                   ; preds = %1, %_ZSt8_DestroyISt3setIN5Yosys5RTLIL6SigBitESt4lessIS3_ESaIS3_EEEvPT_.exit.i.i.i.i
  %.05.i.i.i.i = phi ptr [ %10, %_ZSt8_DestroyISt3setIN5Yosys5RTLIL6SigBitESt4lessIS3_ESaIS3_EEEvPT_.exit.i.i.i.i ], [ %2, %1 ]
  %5 = getelementptr inbounds i8, ptr %.05.i.i.i.i, i64 16
  %6 = load ptr, ptr %5, align 8
  invoke void @_ZNSt8_Rb_treeIN5Yosys5RTLIL6SigBitES2_St9_IdentityIS2_ESt4lessIS2_ESaIS2_EE8_M_eraseEPSt13_Rb_tree_nodeIS2_E(ptr noundef nonnull align 8 dereferenceable(48) %.05.i.i.i.i, ptr noundef %6)
          to label %_ZSt8_DestroyISt3setIN5Yosys5RTLIL6SigBitESt4lessIS3_ESaIS3_EEEvPT_.exit.i.i.i.i unwind label %7

7:                                                ; preds = %.lr.ph.i.i.i.i
  %8 = landingpad { ptr, i32 }
          catch ptr null
  %9 = extractvalue { ptr, i32 } %8, 0
  tail call void @__clang_call_terminate(ptr %9) #19
  unreachable

_ZSt8_DestroyISt3setIN5Yosys5RTLIL6SigBitESt4lessIS3_ESaIS3_EEEvPT_.exit.i.i.i.i: ; preds = %.lr.ph.i.i.i.i
  %10 = getelementptr inbounds i8, ptr %.05.i.i.i.i, i64 48
  %.not.i.i.i.i = icmp eq ptr %10, %4
  br i1 %.not.i.i.i.i, label %_ZSt8_DestroyIPSt3setIN5Yosys5RTLIL6SigBitESt4lessIS3_ESaIS3_EES7_EvT_S9_RSaIT0_E.exitthread-pre-split.i, label %.lr.ph.i.i.i.i, !llvm.loop !13

_ZSt8_DestroyIPSt3setIN5Yosys5RTLIL6SigBitESt4lessIS3_ESaIS3_EES7_EvT_S9_RSaIT0_E.exitthread-pre-split.i: ; preds = %_ZSt8_DestroyISt3setIN5Yosys5RTLIL6SigBitESt4lessIS3_ESaIS3_EEEvPT_.exit.i.i.i.i
  %.pr.i = load ptr, ptr %0, align 8
  br label %_ZSt8_DestroyIPSt3setIN5Yosys5RTLIL6SigBitESt4lessIS3_ESaIS3_EES7_EvT_S9_RSaIT0_E.exit.i

_ZSt8_DestroyIPSt3setIN5Yosys5RTLIL6SigBitESt4lessIS3_ESaIS3_EES7_EvT_S9_RSaIT0_E.exit.i: ; preds = %_ZSt8_DestroyIPSt3setIN5Yosys5RTLIL6SigBitESt4lessIS3_ESaIS3_EES7_EvT_S9_RSaIT0_E.exitthread-pre-split.i, %1
  %11 = phi ptr [ %.pr.i, %_ZSt8_DestroyIPSt3setIN5Yosys5RTLIL6SigBitESt4lessIS3_ESaIS3_EES7_EvT_S9_RSaIT0_E.exitthread-pre-split.i ], [ %2, %1 ]
  %.not.i.i.i = icmp eq ptr %11, null
  br i1 %.not.i.i.i, label %_ZNSt6vectorISt3setIN5Yosys5RTLIL6SigBitESt4lessIS3_ESaIS3_EESaIS7_EED2Ev.exit, label %12

12:                                               ; preds = %_ZSt8_DestroyIPSt3setIN5Yosys5RTLIL6SigBitESt4lessIS3_ESaIS3_EES7_EvT_S9_RSaIT0_E.exit.i
  tail call void @_ZdlPv(ptr noundef nonnull %11) #20
  br label %_ZNSt6vectorISt3setIN5Yosys5RTLIL6SigBitESt4lessIS3_ESaIS3_EESaIS7_EED2Ev.exit

_ZNSt6vectorISt3setIN5Yosys5RTLIL6SigBitESt4lessIS3_ESaIS3_EESaIS7_EED2Ev.exit: ; preds = %_ZSt8_DestroyIPSt3setIN5Yosys5RTLIL6SigBitESt4lessIS3_ESaIS3_EES7_EvT_S9_RSaIT0_E.exit.i, %12
  ret void
}